; Function Attrs: mustprogress ssp uwtable
define void @_ZNK6open3d1t8geometry9TensorMap28AssertPrimaryKeyInMapOrEmptyEv(ptr noundef nonnull align 8 dereferenceable(88) %0) local_unnamed_addr #0 align 2 {
  %2 = getelementptr inbounds nuw i8, ptr %0, i64 24
  %3 = load i64, ptr %2, align 8, !tbaa !13
  %.not = icmp eq i64 %3, 0
  br i1 %.not, label %8, label %4

4:                                                ; preds = %1
  %5 = getelementptr inbounds nuw i8, ptr %0, i64 56
  %6 = tail call ptr @_ZNKSt10_HashtableINSt7__cxx1112basic_stringIcSt11char_traitsIcESaIcEEESt4pairIKS5_N6open3d4core6TensorEESaISB_ENSt8__detail10_Select1stESt8equal_toIS5_ESt4hashIS5_ENSD_18_Mod_range_hashingENSD_20_Default_ranged_hashENSD_20_Prime_rehash_policyENSD_17_Hashtable_traitsILb1ELb0ELb1EEEE4findERS7_(ptr noundef nonnull align 8 dereferenceable(56) %0, ptr noundef nonnull align 8 dereferenceable(32) %5)
  %.not.i.i.not = icmp eq ptr %6, null
  br i1 %.not.i.i.not, label %7, label %8

7:                                                ; preds = %4
  tail call void @_ZN6open3d7utility6Logger9LogError_IJRKNSt7__cxx1112basic_stringIcSt11char_traitsIcESaIcEEEEEEvPKciSC_SC_DpOT_(ptr noundef nonnull @.str.1, i32 noundef 35, ptr noundef nonnull @__PRETTY_FUNCTION__._ZNK6open3d1t8geometry9TensorMap28AssertPrimaryKeyInMapOrEmptyEv, ptr noundef nonnull @.str.2, ptr noundef nonnull align 8 dereferenceable(32) %5) #30
  unreachable

8:                                                ; preds = %4, %1
  ret void
}